(i__main__
ForecastLocation
p1
(dp2
S'current'
p3
(i__main__
ForecastDataset
p4
(dp5
S'weathermap'
p6
NsS'wind_dir_numeric'
p7
V340
p8
sS'high'
p9
V17
p10
sS'timezone'
p11
V13
p12
sS'sunrise'
p13
V5:51 AM
p14
sS'uv_index'
p15
V2
sS'city'
p16
VWellington
p17
sS'last_update'
p18
V1/1/13 9:00 AM Local Time
p19
sS'condition_text'
p20
VPartly Cloudy
p21
sS'low'
p22
V17
p23
sS'wind_gusts'
p24
VN/A
p25
sS'condition_code'
p26
V30
p27
sS'bar_read'
p28
V1013.9
p29
sS'visibility'
p30
V10.0
p31
sS'uv_text'
p32
VLow
p33
sS'wind_dir'
p34
VNNW
p35
sS'wind_speed'
p36
V32
p37
sS'moon_phase'
p38
VWaning Gibbous
p39
sS'observatory'
p40
VWellington
p41
sS'moon_icon'
p42
V17
p43
sS'dew_point'
p44
V12
p45
sS'country'
p46
VNew Zealand
p47
sS'day_of_week'
p48
VToday
p49
sS'humidity'
p50
V72
p51
sS'precip'
p52
VN/A
p53
sS'sunset'
p54
V8:57 PM
p55
sS'bar_desc'
p56
Vsteady
p57
sbsS'timestamp'
p58
cdatetime
datetime
p59
(S'\x07\xdd\x01\x01\t\x1f%\t,\xa2'
tRp60
sS'day'
p61
(lp62
(i__main__
ForecastDataset
p63
(dp64
g6
Nsg7
V326
p65
sg9
V19
p66
sg11
g12
sg13
V5:52 AM
p67
sg15
g53
sg16
g17
sg18
V1/1/13 5:08 AM Local Time
p68
sg20
VPartly Cloudy / Wind
p69
sg22
V17
p70
sg24
VN/A
p71
sg26
V24
p72
sg28
g53
sg30
g53
sg32
g53
sg34
VNW
p73
sg36
V53
p74
sg38
g53
sg40
g53
sg42
g53
sg44
g53
sg46
g47
sg48
VTuesday
p75
sg50
V67
p76
sg52
V20
p77
sg54
V8:57 PM
p78
sg56
g53
sba(i__main__
ForecastDataset
p79
(dp80
g6
Nsg7
V343
p81
sg9
V19
p82
sg11
g12
sg13
V5:53 AM
p83
sg15
g53
sg16
g17
sg18
g68
sg20
VCloudy / Wind
p84
sg22
V15
p85
sg24
VN/A
p86
sg26
V24
p87
sg28
g53
sg30
g53
sg32
g53
sg34
VNNW
p88
sg36
V61
p89
sg38
g53
sg40
g53
sg42
g53
sg44
g53
sg46
g47
sg48
VWednesday
p90
sg50
V72
p91
sg52
V20
p92
sg54
V8:57 PM
p93
sg56
g53
sba(i__main__
ForecastDataset
p94
(dp95
g6
Nsg7
V321
p96
sg9
V18
p97
sg11
g12
sg13
V5:54 AM
p98
sg15
g53
sg16
g17
sg18
g68
sg20
VAM Rain
p99
sg22
V16
p100
sg24
VN/A
p101
sg26
V12
p102
sg28
g53
sg30
g53
sg32
g53
sg34
VNW
p103
sg36
V31
p104
sg38
g53
sg40
g53
sg42
g53
sg44
g53
sg46
g47
sg48
VThursday
p105
sg50
V61
p106
sg52
V90
p107
sg54
V8:57 PM
p108
sg56
g53
sba(i__main__
ForecastDataset
p109
(dp110
g6
Nsg7
V132
p111
sg9
V19
p112
sg11
g12
sg13
V5:55 AM
p113
sg15
g53
sg16
g17
sg18
g68
sg20
VSunny
p114
sg22
V14
p115
sg24
VN/A
p116
sg26
V32
p117
sg28
g53
sg30
g53
sg32
g53
sg34
VSE
p118
sg36
V24
p119
sg38
g53
sg40
g53
sg42
g53
sg44
g53
sg46
g47
sg48
VFriday
p120
sg50
V60
p121
sg52
V0
sg54
V8:57 PM
p122
sg56
g53
sba(i__main__
ForecastDataset
p123
(dp124
g6
Nsg7
V66
p125
sg9
V21
p126
sg11
g12
sg13
V5:56 AM
p127
sg15
g53
sg16
g17
sg18
g68
sg20
VSunny
p128
sg22
V13
p129
sg24
VN/A
p130
sg26
V32
p131
sg28
g53
sg30
g53
sg32
g53
sg34
VENE
p132
sg36
V6
sg38
g53
sg40
g53
sg42
g53
sg44
g53
sg46
g47
sg48
VSaturday
p133
sg50
V61
p134
sg52
V0
sg54
V8:57 PM
p135
sg56
g53
sba(i__main__
ForecastDataset
p136
(dp137
g6
Nsg7
V15
p138
sg9
V22
p139
sg11
g12
sg13
V5:57 AM
p140
sg15
g53
sg16
g17
sg18
g68
sg20
VSunny
p141
sg22
V16
p142
sg24
VN/A
p143
sg26
V32
p144
sg28
g53
sg30
g53
sg32
g53
sg34
VNNE
p145
sg36
V21
p146
sg38
g53
sg40
g53
sg42
g53
sg44
g53
sg46
g47
sg48
VSunday
p147
sg50
V63
p148
sg52
V0
sg54
V8:57 PM
p149
sg56
g53
sba(i__main__
ForecastDataset
p150
(dp151
g6
Nsg7
V66
p152
sg9
V21
p153
sg11
g12
sg13
V5:58 AM
p154
sg15
g53
sg16
g17
sg18
g68
sg20
VMostly Sunny
p155
sg22
V17
p156
sg24
VN/A
p157
sg26
V34
p158
sg28
g53
sg30
g53
sg32
g53
sg34
VENE
p159
sg36
V29
p160
sg38
g53
sg40
g53
sg42
g53
sg44
g53
sg46
g47
sg48
VMonday
p161
sg50
V73
p162
sg52
V10
p163
sg54
V8:57 PM
p164
sg56
g53
sba(i__main__
ForecastDataset
p165
(dp166
g6
Nsg7
V164
p167
sg9
V19
p168
sg11
g12
sg13
V5:59 AM
p169
sg15
g53
sg16
g17
sg18
g68
sg20
VMostly Cloudy
p170
sg22
V17
p171
sg24
VN/A
p172
sg26
V28
p173
sg28
g53
sg30
g53
sg32
g53
sg34
VSSE
p174
sg36
V29
p175
sg38
g53
sg40
g53
sg42
g53
sg44
g53
sg46
g47
sg48
VTuesday
p176
sg50
V62
p177
sg52
V10
p178
sg54
V8:57 PM
p179
sg56
g53
sba(i__main__
ForecastDataset
p180
(dp181
g6
Nsg7
V343
p182
sg9
V20
p183
sg11
g12
sg13
V6:00 AM
p184
sg15
g53
sg16
g17
sg18
g68
sg20
VMostly Cloudy / Wind
p185
sg22
V17
p186
sg24
VN/A
p187
sg26
V24
p188
sg28
g53
sg30
g53
sg32
g53
sg34
VNNW
p189
sg36
V39
p190
sg38
g53
sg40
g53
sg42
g53
sg44
g53
sg46
g47
sg48
VWednesday
p191
sg50
V72
p192
sg52
V20
p193
sg54
V8:57 PM
p194
sg56
g53
sba(i__main__
ForecastDataset
p195
(dp196
g6
Nsg7
V12
p197
sg9
V20
p198
sg11
g12
sg13
V6:01 AM
p199
sg15
g53
sg16
g17
sg18
g68
sg20
VMostly Cloudy
p200
sg22
V17
p201
sg24
VN/A
p202
sg26
V28
p203
sg28
g53
sg30
g53
sg32
g53
sg34
VNNE
p204
sg36
V26
p205
sg38
g53
sg40
g53
sg42
g53
sg44
g53
sg46
g47
sg48
VThursday
p206
sg50
V71
p207
sg52
V10
p208
sg54
V8:56 PM
p209
sg56
g53
sbasS'night'
p210
(lp211
(i__main__
ForecastDataset
p212
(dp213
g6
Nsg7
V337
p214
sg9
g66
sg11
g12
sg13
g67
sg15
g53
sg16
g17
sg18
g68
sg20
VPartly Cloudy / Wind
p215
sg22
g70
sg24
VN/A
p216
sg26
V24
p217
sg28
g53
sg30
g53
sg32
g53
sg34
VNNW
p218
sg36
V51
p219
sg38
g53
sg40
g53
sg42
g53
sg44
g53
sg46
g47
sg48
g75
sg50
V74
p220
sg52
V10
p221
sg54
g78
sg56
g53
sba(i__main__
ForecastDataset
p222
(dp223
g6
Nsg7
V342
p224
sg9
g82
sg11
g12
sg13
g83
sg15
g53
sg16
g17
sg18
g68
sg20
VRain / Wind Late
p225
sg22
g85
sg24
VN/A
p226
sg26
V12
p227
sg28
g53
sg30
g53
sg32
g53
sg34
VNNW
p228
sg36
V58
p229
sg38
g53
sg40
g53
sg42
g53
sg44
g53
sg46
g47
sg48
g90
sg50
V79
p230
sg52
V90
p231
sg54
g93
sg56
g53
sba(i__main__
ForecastDataset
p232
(dp233
g6
Nsg7
V40
p234
sg9
g97
sg11
g12
sg13
g98
sg15
g53
sg16
g17
sg18
g68
sg20
VClear
p235
sg22
g100
sg24
VN/A
p236
sg26
V31
p237
sg28
g53
sg30
g53
sg32
g53
sg34
VNE
p238
sg36
V18
p239
sg38
g53
sg40
g53
sg42
g53
sg44
g53
sg46
g47
sg48
g105
sg50
V62
p240
sg52
V0
sg54
g108
sg56
g53
sba(i__main__
ForecastDataset
p241
(dp242
g6
Nsg7
V70
p243
sg9
g112
sg11
g12
sg13
g113
sg15
g53
sg16
g17
sg18
g68
sg20
VClear
p244
sg22
g115
sg24
VN/A
p245
sg26
V31
p246
sg28
g53
sg30
g53
sg32
g53
sg34
VENE
p247
sg36
V11
p248
sg38
g53
sg40
g53
sg42
g53
sg44
g53
sg46
g47
sg48
g120
sg50
V67
p249
sg52
V0
sg54
g122
sg56
g53
sba(i__main__
ForecastDataset
p250
(dp251
g6
Nsg7
V49
p252
sg9
g126
sg11
g12
sg13
g127
sg15
g53
sg16
g17
sg18
g68
sg20
VClear
p253
sg22
g129
sg24
VN/A
p254
sg26
V31
p255
sg28
g53
sg30
g53
sg32
g53
sg34
VNE
p256
sg36
V11
p257
sg38
g53
sg40
g53
sg42
g53
sg44
g53
sg46
g47
sg48
g133
sg50
V61
p258
sg52
V0
sg54
g135
sg56
g53
sba(i__main__
ForecastDataset
p259
(dp260
g6
Nsg7
V18
p261
sg9
g139
sg11
g12
sg13
g140
sg15
g53
sg16
g17
sg18
g68
sg20
VClear
p262
sg22
g142
sg24
VN/A
p263
sg26
V31
p264
sg28
g53
sg30
g53
sg32
g53
sg34
VNNE
p265
sg36
V16
p266
sg38
g53
sg40
g53
sg42
g53
sg44
g53
sg46
g47
sg48
g147
sg50
V76
p267
sg52
V0
sg54
g149
sg56
g53
sba(i__main__
ForecastDataset
p268
(dp269
g6
Nsg7
V114
p270
sg9
g153
sg11
g12
sg13
g154
sg15
g53
sg16
g17
sg18
g68
sg20
VMostly Cloudy
p271
sg22
g156
sg24
VN/A
p272
sg26
V27
p273
sg28
g53
sg30
g53
sg32
g53
sg34
VESE
p274
sg36
V23
p275
sg38
g53
sg40
g53
sg42
g53
sg44
g53
sg46
g47
sg48
g161
sg50
V70
p276
sg52
V10
p277
sg54
g164
sg56
g53
sba(i__main__
ForecastDataset
p278
(dp279
g6
Nsg7
V324
p280
sg9
g168
sg11
g12
sg13
g169
sg15
g53
sg16
g17
sg18
g68
sg20
VClouds Early / Clearing Late
p281
sg22
g171
sg24
VN/A
p282
sg26
V29
p283
sg28
g53
sg30
g53
sg32
g53
sg34
VNW
p284
sg36
V29
p285
sg38
g53
sg40
g53
sg42
g53
sg44
g53
sg46
g47
sg48
g176
sg50
V69
p286
sg52
V0
sg54
g179
sg56
g53
sba(i__main__
ForecastDataset
p287
(dp288
g6
Nsg7
V2
sg9
g183
sg11
g12
sg13
g184
sg15
g53
sg16
g17
sg18
g68
sg20
VClear
p289
sg22
g186
sg24
VN/A
p290
sg26
V31
p291
sg28
g53
sg30
g53
sg32
g53
sg34
VN
sg36
V27
p292
sg38
g53
sg40
g53
sg42
g53
sg44
g53
sg46
g47
sg48
g191
sg50
V74
p293
sg52
V0
sg54
g194
sg56
g53
sba(i__main__
ForecastDataset
p294
(dp295
g6
Nsg7
V358
p296
sg9
g198
sg11
g12
sg13
g199
sg15
g53
sg16
g17
sg18
g68
sg20
VMostly Clear
p297
sg22
g201
sg24
VN/A
p298
sg26
V33
p299
sg28
g53
sg30
g53
sg32
g53
sg34
VN
sg36
V21
p300
sg38
g53
sg40
g53
sg42
g53
sg44
g53
sg46
g47
sg48
g206
sg50
V73
p301
sg52
V0
sg54
g209
sg56
g53
sbasb.